target datalayout = "e-m:e-p270:32:32-p271:32:32-p272:64:64-i64:64-i128:128-f80:128-n8:16:32:64-S128"
target triple = "x86_64-pc-linux-gnu"

%"class.cv::(anonymous namespace)::ufixedpoint32" = type { i32 }

; Function Attrs: inlinehint mustprogress nounwind uwtable
define linkonce_odr noundef nonnull align 4 dereferenceable(4) ptr @_ZSt3minIjERKT_S2_S2_(ptr noundef nonnull align 4 dereferenceable(4) %0, ptr noundef nonnull align 4 dereferenceable(4) %1) #9 comdat {
  %3 = alloca ptr, align 8
  %4 = alloca ptr, align 8
  %5 = alloca ptr, align 8
  store ptr %0, ptr %4, align 8, !tbaa !22
  store ptr %1, ptr %5, align 8, !tbaa !22
  %6 = load ptr, ptr %5, align 8, !tbaa !22
  %7 = load i32, ptr %6, align 4, !tbaa !10
  %8 = load ptr, ptr %4, align 8, !tbaa !22
  %9 = load i32, ptr %8, align 4, !tbaa !10
  %10 = icmp ult i32 %7, %9
  br i1 %10, label %11, label %13

11:                                               ; preds = %2
  %12 = load ptr, ptr %5, align 8, !tbaa !22
  store ptr %12, ptr %3, align 8
  br label %15

13:                                               ; preds = %2
  %14 = load ptr, ptr %4, align 8, !tbaa !22
  store ptr %14, ptr %3, align 8
  br label %15

15:                                               ; preds = %13, %11
  %16 = load ptr, ptr %3, align 8
  ret ptr %16
}

; Function Attrs: inlinehint mustprogress uwtable
define internal noundef zeroext i16 @_ZN2cvL13saturate_castItEET_j(i32 noundef %0) #8 {
  %2 = alloca i32, align 4
  %3 = alloca i32, align 4
  store i32 %0, ptr %2, align 4, !tbaa !10
  call void @llvm.lifetime.start.p0(i64 4, ptr %3) #3
  store i32 65535, ptr %3, align 4, !tbaa !10
  %4 = call noundef nonnull align 4 dereferenceable(4) ptr @_ZSt3minIjERKT_S2_S2_(ptr noundef nonnull align 4 dereferenceable(4) %2, ptr noundef nonnull align 4 dereferenceable(4) %3)
  %5 = load i32, ptr %4, align 4, !tbaa !10
  %6 = trunc i32 %5 to i16
  call void @llvm.lifetime.end.p0(i64 4, ptr %3) #3
  ret i16 %6
}

; Function Attrs: alwaysinline mustprogress nounwind uwtable
define internal noundef i32 @_ZN2cv12_GLOBAL__N_113ufixedpoint3210fixedroundERKj(ptr noundef nonnull align 4 dereferenceable(4) %0) #17 align 2 {
  %2 = alloca ptr, align 8
  store ptr %0, ptr %2, align 8, !tbaa !22
  %3 = load ptr, ptr %2, align 8, !tbaa !22
  %4 = load i32, ptr %3, align 4, !tbaa !10
  %5 = add i32 %4, 32768
  ret i32 %5
}

; Function Attrs: alwaysinline mustprogress uwtable
define internal noundef zeroext i16 @_ZNK2cv12_GLOBAL__N_113ufixedpoint3213saturate_castItEET_v(ptr noundef nonnull align 4 dereferenceable(4) %0) #19 align 2 {
  %2 = alloca ptr, align 8
  store ptr %0, ptr %2, align 8, !tbaa !343
  %3 = load ptr, ptr %2, align 8
  %4 = getelementptr inbounds nuw %"class.cv::(anonymous namespace)::ufixedpoint32", ptr %3, i32 0, i32 0
  %5 = call noundef i32 @_ZN2cv12_GLOBAL__N_113ufixedpoint3210fixedroundERKj(ptr noundef nonnull align 4 dereferenceable(4) %4)
  %6 = lshr i32 %5, 16
  %7 = call noundef zeroext i16 @_ZN2cvL13saturate_castItEET_j(i32 noundef %6)
  ret i16 %7
}

; Function Attrs: alwaysinline mustprogress uwtable
define internal noundef zeroext i16 @_ZNK2cv12_GLOBAL__N_113ufixedpoint32cvtEv(ptr noundef nonnull align 4 dereferenceable(4) %0) #19 align 2 {
  %2 = alloca ptr, align 8
  store ptr %0, ptr %2, align 8, !tbaa !343
  %3 = load ptr, ptr %2, align 8
  %4 = call noundef zeroext i16 @_ZNK2cv12_GLOBAL__N_113ufixedpoint3213saturate_castItEET_v(ptr noundef nonnull align 4 dereferenceable(4) %3)
  ret i16 %4
}

; Function Attrs: mustprogress uwtable
define internal void @_ZN2cv12cpu_baseline12_GLOBAL__N_114vlineSmooth1N1ItNS_12_GLOBAL__N_113ufixedpoint32EEEvPKPKT0_S7_iPT_i(ptr noundef %0, ptr noundef %1, i32 noundef %2, ptr noundef %3, i32 noundef %4) #4 {
  %6 = alloca ptr, align 8
  %7 = alloca ptr, align 8
  %8 = alloca i32, align 4
  %9 = alloca ptr, align 8
  %10 = alloca i32, align 4
  %11 = alloca ptr, align 8
  %12 = alloca i32, align 4
  store ptr %0, ptr %6, align 8, !tbaa !452
  store ptr %1, ptr %7, align 8, !tbaa !343
  store i32 %2, ptr %8, align 4, !tbaa !10
  store ptr %3, ptr %9, align 8, !tbaa !8
  store i32 %4, ptr %10, align 4, !tbaa !10
  call void @llvm.lifetime.start.p0(i64 8, ptr %11) #3
  %13 = load ptr, ptr %6, align 8, !tbaa !452
  %14 = getelementptr inbounds ptr, ptr %13, i64 0
  %15 = load ptr, ptr %14, align 8, !tbaa !343
  store ptr %15, ptr %11, align 8, !tbaa !343
  call void @llvm.lifetime.start.p0(i64 4, ptr %12) #3
  store i32 0, ptr %12, align 4, !tbaa !10
  br label %16

16:                                               ; preds = %31, %5
  %17 = load i32, ptr %12, align 4, !tbaa !10
  %18 = load i32, ptr %10, align 4, !tbaa !10
  %19 = icmp slt i32 %17, %18
  br i1 %19, label %21, label %20

20:                                               ; preds = %16
  call void @llvm.lifetime.end.p0(i64 4, ptr %12) #3
  br label %34

21:                                               ; preds = %16
  %22 = load ptr, ptr %11, align 8, !tbaa !343
  %23 = load i32, ptr %12, align 4, !tbaa !10
  %24 = sext i32 %23 to i64
  %25 = getelementptr inbounds %"class.cv::(anonymous namespace)::ufixedpoint32", ptr %22, i64 %24
  %26 = call noundef zeroext i16 @_ZNK2cv12_GLOBAL__N_113ufixedpoint32cvtEv(ptr noundef nonnull align 4 dereferenceable(4) %25)
  %27 = load ptr, ptr %9, align 8, !tbaa !8
  %28 = load i32, ptr %12, align 4, !tbaa !10
  %29 = sext i32 %28 to i64
  %30 = getelementptr inbounds i16, ptr %27, i64 %29
  store i16 %26, ptr %30, align 2, !tbaa !236
  br label %31

31:                                               ; preds = %21
  %32 = load i32, ptr %12, align 4, !tbaa !10
  %33 = add nsw i32 %32, 1
  store i32 %33, ptr %12, align 4, !tbaa !10
  br label %16, !llvm.loop !454

34:                                               ; preds = %20
  call void @llvm.lifetime.end.p0(i64 8, ptr %11) #3
  ret void
}